target datalayout = "e-m:e-p270:32:32-p271:32:32-p272:64:64-i64:64-i128:128-f80:128-n8:16:32:64-S128"
target triple = "x86_64-pc-linux-gnu"

%struct.H5VL_blob_specific_args_t = type { i32, %union.anon.13 }
%union.anon.13 = type { %struct.anon.14 }
%struct.anon.14 = type { ptr }

@H5T_init_g = external global i8, align 1
@H5_libterm_g = external global i8, align 1
@.str = private unnamed_addr constant [100 x i8] c"generated/home/dtcxzyw/WorkSpace/Projects/compilers/llvm-opt-benchmark/bench/hdf5/hdf5/src/H5Tref.c\00", align 1
@H5E_DATATYPE_g = external global i64, align 8
@H5E_CANTSET_g = external global i64, align 8
@H5E_CANTREMOVE_g = external global i64, align 8
@.str.26 = private unnamed_addr constant [22 x i8] c"unable to delete blob\00", align 1
@__func__.H5T__ref_disk_write = private unnamed_addr constant [20 x i8] c"H5T__ref_disk_write\00", align 1
@.str.30 = private unnamed_addr constant [19 x i8] c"unable to put blob\00", align 1

; Function Attrs: nounwind uwtable
define internal i32 @H5T__ref_disk_write(ptr noundef %0, ptr noundef %1, i64 noundef %2, i32 noundef %3, ptr noundef %4, ptr noundef %5, i64 noundef %6, ptr noundef %7) #0 {
  %9 = alloca i32, align 4
  %10 = alloca ptr, align 8
  %11 = alloca ptr, align 8
  %12 = alloca i64, align 8
  %13 = alloca i32, align 4
  %14 = alloca ptr, align 8
  %15 = alloca ptr, align 8
  %16 = alloca i64, align 8
  %17 = alloca ptr, align 8
  %18 = alloca ptr, align 8
  %19 = alloca ptr, align 8
  %20 = alloca ptr, align 8
  %21 = alloca i32, align 4
  %22 = alloca i8, align 1
  %23 = alloca %struct.H5VL_blob_specific_args_t, align 8
  %24 = alloca i32, align 4
  store ptr %0, ptr %10, align 8, !tbaa !8
  store ptr %1, ptr %11, align 8, !tbaa !39
  store i64 %2, ptr %12, align 8, !tbaa !28
  store i32 %3, ptr %13, align 4, !tbaa !10
  store ptr %4, ptr %14, align 8, !tbaa !8
  store ptr %5, ptr %15, align 8, !tbaa !39
  store i64 %6, ptr %16, align 8, !tbaa !28
  store ptr %7, ptr %17, align 8, !tbaa !39
  call void @llvm.lifetime.start.p0(i64 8, ptr %18) #8
  %25 = load ptr, ptr %11, align 8, !tbaa !39
  store ptr %25, ptr %18, align 8, !tbaa !44
  call void @llvm.lifetime.start.p0(i64 8, ptr %19) #8
  %26 = load ptr, ptr %15, align 8, !tbaa !39
  store ptr %26, ptr %19, align 8, !tbaa !44
  call void @llvm.lifetime.start.p0(i64 8, ptr %20) #8
  %27 = load ptr, ptr %17, align 8, !tbaa !39
  store ptr %27, ptr %20, align 8, !tbaa !44
  call void @llvm.lifetime.start.p0(i64 4, ptr %21) #8
  store i32 0, ptr %21, align 4, !tbaa !10
  call void @llvm.lifetime.start.p0(i64 1, ptr %22) #8
  store i8 0, ptr %22, align 1, !tbaa !12
  %28 = load i8, ptr @H5T_init_g, align 1, !tbaa !12, !range !14, !noundef !15
  %29 = trunc i8 %28 to i1
  br i1 %29, label %34, label %30

30:                                               ; preds = %8
  %31 = load i8, ptr @H5_libterm_g, align 1, !tbaa !12, !range !14, !noundef !15
  %32 = trunc i8 %31 to i1
  %33 = xor i1 %32, true
  br label %34

34:                                               ; preds = %30, %8
  %35 = phi i1 [ true, %8 ], [ %33, %30 ]
  %36 = xor i1 %35, true
  %37 = xor i1 %36, true
  %38 = zext i1 %37 to i32
  %39 = sext i32 %38 to i64
  %40 = call i64 @llvm.expect.i64(i64 %39, i64 1)
  %41 = icmp ne i64 %40, 0
  br i1 %41, label %42, label %145

42:                                               ; preds = %34
  br label %43

43:                                               ; preds = %42
  br label %44

44:                                               ; preds = %43
  br label %45

45:                                               ; preds = %44
  %46 = load ptr, ptr %20, align 8, !tbaa !44
  %47 = icmp ne ptr %46, null
  br i1 %47, label %48, label %79

48:                                               ; preds = %45
  call void @llvm.lifetime.start.p0(i64 16, ptr %23) #8
  %49 = load ptr, ptr %20, align 8, !tbaa !44
  %50 = getelementptr inbounds nuw i8, ptr %49, i64 6
  store ptr %50, ptr %20, align 8, !tbaa !44
  %51 = getelementptr inbounds nuw %struct.H5VL_blob_specific_args_t, ptr %23, i32 0, i32 0
  store i32 0, ptr %51, align 8, !tbaa !54
  %52 = load ptr, ptr %14, align 8, !tbaa !8
  %53 = load ptr, ptr %20, align 8, !tbaa !44
  %54 = call i32 @H5VL_blob_specific(ptr noundef %52, ptr noundef %53, ptr noundef %23)
  %55 = icmp slt i32 %54, 0
  br i1 %55, label %56, label %75

56:                                               ; preds = %48
  br label %57

57:                                               ; preds = %56
  br label %58

58:                                               ; preds = %57
  br label %59

59:                                               ; preds = %58
  %60 = load i64, ptr @H5E_DATATYPE_g, align 8, !tbaa !28
  %61 = load i64, ptr @H5E_CANTREMOVE_g, align 8, !tbaa !28
  %62 = call i32 (ptr, ptr, i32, i64, i64, ptr, ...) @H5E_printf_stack(ptr noundef @.str, ptr noundef @__func__.H5T__ref_disk_write, i32 noundef 996, i64 noundef %60, i64 noundef %61, ptr noundef @.str.26)
  br label %63

63:                                               ; preds = %59
  br label %64

64:                                               ; preds = %63
  store i8 1, ptr %22, align 1, !tbaa !12
  %65 = load i8, ptr %22, align 1, !tbaa !12, !range !14, !noundef !15
  %66 = trunc i8 %65 to i1
  %67 = zext i1 %66 to i8
  store i8 %67, ptr %22, align 1, !tbaa !12
  br label %68

68:                                               ; preds = %64
  br label %69

69:                                               ; preds = %68
  br label %70

70:                                               ; preds = %69
  store i32 -1, ptr %21, align 4, !tbaa !10
  store i32 12, ptr %24, align 4
  br label %76

71:                                               ; No predecessors!
  br label %72

72:                                               ; preds = %71
  br label %73

73:                                               ; preds = %72
  br label %74

74:                                               ; preds = %73
  br label %75

75:                                               ; preds = %74, %48
  store i32 0, ptr %24, align 4
  br label %76

76:                                               ; preds = %70, %75
  call void @llvm.lifetime.end.p0(i64 16, ptr %23) #8
  %77 = load i32, ptr %24, align 4
  switch i32 %77, label %147 [
    i32 0, label %78
    i32 12, label %144
  ]

78:                                               ; preds = %76
  br label %79

79:                                               ; preds = %78, %45
  %80 = load ptr, ptr %19, align 8, !tbaa !44
  %81 = load ptr, ptr %18, align 8, !tbaa !44
  call void @llvm.memcpy.p0.p0.i64(ptr align 1 %80, ptr align 1 %81, i64 2, i1 false)
  %82 = load ptr, ptr %18, align 8, !tbaa !44
  %83 = getelementptr inbounds nuw i8, ptr %82, i64 2
  store ptr %83, ptr %18, align 8, !tbaa !44
  %84 = load ptr, ptr %19, align 8, !tbaa !44
  %85 = getelementptr inbounds nuw i8, ptr %84, i64 2
  store ptr %85, ptr %19, align 8, !tbaa !44
  %86 = load i64, ptr %12, align 8, !tbaa !28
  %87 = sub i64 %86, 2
  store i64 %87, ptr %12, align 8, !tbaa !28
  br label %88

88:                                               ; preds = %79
  %89 = load i64, ptr %12, align 8, !tbaa !28
  %90 = and i64 %89, 255
  %91 = trunc i64 %90 to i8
  %92 = load ptr, ptr %19, align 8, !tbaa !44
  store i8 %91, ptr %92, align 1, !tbaa !25
  %93 = load ptr, ptr %19, align 8, !tbaa !44
  %94 = getelementptr inbounds nuw i8, ptr %93, i32 1
  store ptr %94, ptr %19, align 8, !tbaa !44
  %95 = load i64, ptr %12, align 8, !tbaa !28
  %96 = lshr i64 %95, 8
  %97 = and i64 %96, 255
  %98 = trunc i64 %97 to i8
  %99 = load ptr, ptr %19, align 8, !tbaa !44
  store i8 %98, ptr %99, align 1, !tbaa !25
  %100 = load ptr, ptr %19, align 8, !tbaa !44
  %101 = getelementptr inbounds nuw i8, ptr %100, i32 1
  store ptr %101, ptr %19, align 8, !tbaa !44
  %102 = load i64, ptr %12, align 8, !tbaa !28
  %103 = lshr i64 %102, 16
  %104 = and i64 %103, 255
  %105 = trunc i64 %104 to i8
  %106 = load ptr, ptr %19, align 8, !tbaa !44
  store i8 %105, ptr %106, align 1, !tbaa !25
  %107 = load ptr, ptr %19, align 8, !tbaa !44
  %108 = getelementptr inbounds nuw i8, ptr %107, i32 1
  store ptr %108, ptr %19, align 8, !tbaa !44
  %109 = load i64, ptr %12, align 8, !tbaa !28
  %110 = lshr i64 %109, 24
  %111 = and i64 %110, 255
  %112 = trunc i64 %111 to i8
  %113 = load ptr, ptr %19, align 8, !tbaa !44
  store i8 %112, ptr %113, align 1, !tbaa !25
  %114 = load ptr, ptr %19, align 8, !tbaa !44
  %115 = getelementptr inbounds nuw i8, ptr %114, i32 1
  store ptr %115, ptr %19, align 8, !tbaa !44
  br label %116

116:                                              ; preds = %88
  br label %117

117:                                              ; preds = %116
  %118 = load ptr, ptr %14, align 8, !tbaa !8
  %119 = load ptr, ptr %18, align 8, !tbaa !44
  %120 = load i64, ptr %12, align 8, !tbaa !28
  %121 = load ptr, ptr %19, align 8, !tbaa !44
  %122 = call i32 @H5VL_blob_put(ptr noundef %118, ptr noundef %119, i64 noundef %120, ptr noundef %121, ptr noundef null)
  %123 = icmp slt i32 %122, 0
  br i1 %123, label %124, label %143

124:                                              ; preds = %117
  br label %125

125:                                              ; preds = %124
  br label %126

126:                                              ; preds = %125
  br label %127

127:                                              ; preds = %126
  %128 = load i64, ptr @H5E_DATATYPE_g, align 8, !tbaa !28
  %129 = load i64, ptr @H5E_CANTSET_g, align 8, !tbaa !28
  %130 = call i32 (ptr, ptr, i32, i64, i64, ptr, ...) @H5E_printf_stack(ptr noundef @.str, ptr noundef @__func__.H5T__ref_disk_write, i32 noundef 1017, i64 noundef %128, i64 noundef %129, ptr noundef @.str.30)
  br label %131

131:                                              ; preds = %127
  br label %132

132:                                              ; preds = %131
  store i8 1, ptr %22, align 1, !tbaa !12
  %133 = load i8, ptr %22, align 1, !tbaa !12, !range !14, !noundef !15
  %134 = trunc i8 %133 to i1
  %135 = zext i1 %134 to i8
  store i8 %135, ptr %22, align 1, !tbaa !12
  br label %136

136:                                              ; preds = %132
  br label %137

137:                                              ; preds = %136
  br label %138

138:                                              ; preds = %137
  store i32 -1, ptr %21, align 4, !tbaa !10
  br label %144

139:                                              ; No predecessors!
  br label %140

140:                                              ; preds = %139
  br label %141

141:                                              ; preds = %140
  br label %142

142:                                              ; preds = %141
  br label %143

143:                                              ; preds = %142, %117
  br label %144

144:                                              ; preds = %143, %76, %138
  br label %145

145:                                              ; preds = %144, %34
  %146 = load i32, ptr %21, align 4, !tbaa !10
  store i32 %146, ptr %9, align 4
  store i32 1, ptr %24, align 4
  br label %147

147:                                              ; preds = %145, %76
  call void @llvm.lifetime.end.p0(i64 1, ptr %22) #8
  call void @llvm.lifetime.end.p0(i64 4, ptr %21) #8
  call void @llvm.lifetime.end.p0(i64 8, ptr %20) #8
  call void @llvm.lifetime.end.p0(i64 8, ptr %19) #8
  call void @llvm.lifetime.end.p0(i64 8, ptr %18) #8
  %148 = load i32, ptr %9, align 4
  ret i32 %148
}