; Function Attrs: nounwind uwtable
define internal range(i32 -1, 1) i32 @H5T__ref_disk_write(ptr readnone captures(none) %0, ptr noundef %1, i64 noundef %2, i32 %3, ptr noundef %4, ptr noundef %5, i64 %6, ptr noundef %7) #0 {
  %9 = alloca %struct.H5VL_blob_specific_args_t, align 8
  %10 = load i8, ptr @H5T_init_g, align 1, !tbaa !3, !range !7, !noundef !8
  %11 = trunc nuw i8 %10 to i1
  %12 = load i8, ptr @H5_libterm_g, align 1, !range !7
  %13 = trunc nuw i8 %12 to i1
  %14 = xor i1 %13, true
  %15 = select i1 %11, i1 true, i1 %14
  br i1 %15, label %16, label %47, !prof !9

16:                                               ; preds = %8
  %.not = icmp eq ptr %7, null
  br i1 %.not, label %25, label %17

17:                                               ; preds = %16
  call void @llvm.lifetime.start.p0(i64 16, ptr nonnull %9) #11
  %18 = getelementptr inbounds nuw i8, ptr %7, i64 6
  store i32 0, ptr %9, align 8, !tbaa !44
  %19 = call i32 @H5VL_blob_specific(ptr noundef %4, ptr noundef nonnull %18, ptr noundef nonnull %9) #11
  %20 = icmp slt i32 %19, 0
  br i1 %20, label %21, label %.thread

.thread:                                          ; preds = %17
  call void @llvm.lifetime.end.p0(i64 16, ptr nonnull %9) #11
  br label %25

21:                                               ; preds = %17
  %22 = load i64, ptr @H5E_DATATYPE_g, align 8, !tbaa !26
  %23 = load i64, ptr @H5E_CANTREMOVE_g, align 8, !tbaa !26
  %24 = call i32 (ptr, ptr, i32, i64, i64, ptr, ...) @H5E_printf_stack(ptr noundef nonnull @.str, ptr noundef nonnull @__func__.H5T__ref_disk_write, i32 noundef 996, i64 noundef %22, i64 noundef %23, ptr noundef nonnull @.str.26) #11
  call void @llvm.lifetime.end.p0(i64 16, ptr nonnull %9) #11
  br label %47

25:                                               ; preds = %.thread, %16
  %26 = load i16, ptr %1, align 1
  store i16 %26, ptr %5, align 1
  %27 = getelementptr inbounds nuw i8, ptr %1, i64 2
  %28 = getelementptr inbounds nuw i8, ptr %5, i64 2
  %29 = add i64 %2, -2
  %30 = trunc i64 %29 to i8
  store i8 %30, ptr %28, align 1, !tbaa !22
  %31 = getelementptr inbounds nuw i8, ptr %5, i64 3
  %32 = lshr i64 %29, 8
  %33 = trunc i64 %32 to i8
  store i8 %33, ptr %31, align 1, !tbaa !22
  %34 = getelementptr inbounds nuw i8, ptr %5, i64 4
  %35 = lshr i64 %29, 16
  %36 = trunc i64 %35 to i8
  store i8 %36, ptr %34, align 1, !tbaa !22
  %37 = getelementptr inbounds nuw i8, ptr %5, i64 5
  %38 = lshr i64 %29, 24
  %39 = trunc i64 %38 to i8
  store i8 %39, ptr %37, align 1, !tbaa !22
  %40 = getelementptr inbounds nuw i8, ptr %5, i64 6
  %41 = call i32 @H5VL_blob_put(ptr noundef %4, ptr noundef nonnull %27, i64 noundef %29, ptr noundef nonnull %40, ptr noundef null) #11
  %42 = icmp slt i32 %41, 0
  br i1 %42, label %43, label %47

43:                                               ; preds = %25
  %44 = load i64, ptr @H5E_DATATYPE_g, align 8, !tbaa !26
  %45 = load i64, ptr @H5E_CANTSET_g, align 8, !tbaa !26
  %46 = call i32 (ptr, ptr, i32, i64, i64, ptr, ...) @H5E_printf_stack(ptr noundef nonnull @.str, ptr noundef nonnull @__func__.H5T__ref_disk_write, i32 noundef 1017, i64 noundef %44, i64 noundef %45, ptr noundef nonnull @.str.30) #11
  br label %47

47:                                               ; preds = %21, %8, %25, %43
  %.033 = phi i32 [ -1, %21 ], [ -1, %43 ], [ 0, %25 ], [ 0, %8 ]
  ret i32 %.033
}